; Function Attrs: mustprogress uwtable
define hidden noalias noundef ptr @_ZN7datalog24interval_relation_plugin24mk_filter_interpreted_fnERKNS_13relation_baseEP3app(ptr noundef nonnull readnone align 8 captures(address) dereferenceable(240) %0, ptr noundef nonnull readonly align 8 dereferenceable(28) %1, ptr noundef %2) unnamed_addr #3 align 2 personality ptr @__gxx_personality_v0 {
  %4 = getelementptr inbounds nuw i8, ptr %1, i64 8
  %5 = load ptr, ptr %4, align 8, !tbaa !48
  %6 = icmp eq ptr %5, %0
  br i1 %6, label %7, label %_ZN7datalog24interval_relation_plugin21filter_interpreted_fnC2ERKNS_17interval_relationEP3app.exit

7:                                                ; preds = %3
  %8 = tail call noalias noundef ptr @_ZN6memory8allocateEm(i64 noundef 24)
  %9 = tail call ptr @__dynamic_cast(ptr nonnull readonly align 8 dereferenceable(28) %1, ptr nonnull @_ZTIN7datalog13relation_baseE, ptr nonnull @_ZTIN7datalog17interval_relationE, i64 0) #25
  %10 = icmp eq ptr %9, null
  br i1 %10, label %11, label %_ZN7datalog24interval_relation_plugin3getERKNS_13relation_baseE.exit

11:                                               ; preds = %7
  tail call void @__cxa_bad_cast() #27
  unreachable

_ZN7datalog24interval_relation_plugin3getERKNS_13relation_baseE.exit: ; preds = %7
  store ptr getelementptr inbounds nuw inrange(-16, 40) (i8, ptr @_ZTVN7datalog24interval_relation_plugin21filter_interpreted_fnE, i64 16), ptr %8, align 8, !tbaa !17
  %12 = getelementptr inbounds nuw i8, ptr %8, i64 8
  %13 = getelementptr inbounds nuw i8, ptr %9, i64 8
  %14 = load ptr, ptr %13, align 8, !tbaa !48
  %15 = getelementptr inbounds nuw i8, ptr %14, i64 24
  %16 = load ptr, ptr %15, align 8, !tbaa !27
  %17 = tail call noundef nonnull align 8 dereferenceable(976) ptr @_ZN7datalog32get_ast_manager_from_rel_managerERKNS_16relation_managerE(ptr noundef nonnull align 8 dereferenceable(200) %16)
  store ptr %2, ptr %12, align 8, !tbaa !302
  %18 = getelementptr inbounds nuw i8, ptr %8, i64 16
  store ptr %17, ptr %18, align 8, !tbaa !303
  %.not.i.i.i = icmp eq ptr %2, null
  br i1 %.not.i.i.i, label %_ZN7datalog24interval_relation_plugin21filter_interpreted_fnC2ERKNS_17interval_relationEP3app.exit, label %_ZN11ast_manager7inc_refEP3ast.exit.i.i.i

_ZN11ast_manager7inc_refEP3ast.exit.i.i.i:        ; preds = %_ZN7datalog24interval_relation_plugin3getERKNS_13relation_baseE.exit
  %19 = getelementptr inbounds nuw i8, ptr %2, i64 8
  %20 = load i32, ptr %19, align 4, !tbaa !304
  %21 = add i32 %20, 1
  store i32 %21, ptr %19, align 4, !tbaa !304
  br label %_ZN7datalog24interval_relation_plugin21filter_interpreted_fnC2ERKNS_17interval_relationEP3app.exit

_ZN7datalog24interval_relation_plugin21filter_interpreted_fnC2ERKNS_17interval_relationEP3app.exit: ; preds = %_ZN11ast_manager7inc_refEP3ast.exit.i.i.i, %_ZN7datalog24interval_relation_plugin3getERKNS_13relation_baseE.exit, %3
  %.0 = phi ptr [ null, %3 ], [ %8, %_ZN7datalog24interval_relation_plugin3getERKNS_13relation_baseE.exit ], [ %8, %_ZN11ast_manager7inc_refEP3ast.exit.i.i.i ]
  ret ptr %.0
}